target datalayout = "e-m:e-p270:32:32-p271:32:32-p272:64:64-i64:64-i128:128-f80:128-n8:16:32:64-S128"
target triple = "x86_64-pc-linux-gnu"

%struct.normal_encoding = type { %struct.encoding, [256 x i8], ptr, ptr, ptr, ptr, ptr, ptr, ptr, ptr, ptr }
%struct.encoding = type { [3 x ptr], [2 x ptr], ptr, ptr, ptr, ptr, ptr, ptr, ptr, ptr, ptr, ptr, i32, i8, i8 }
%struct.position = type { i64, i64 }

; Function Attrs: nounwind uwtable
define internal i32 @unicode_byte_type(i8 noundef signext %0, i8 noundef signext %1) #0 {
  %3 = alloca i32, align 4
  %4 = alloca i8, align 1
  %5 = alloca i8, align 1
  store i8 %0, ptr %4, align 1, !tbaa !13
  store i8 %1, ptr %5, align 1, !tbaa !13
  %6 = load i8, ptr %4, align 1, !tbaa !13
  %7 = zext i8 %6 to i32
  switch i32 %7, label %15 [
    i32 216, label %8
    i32 217, label %8
    i32 218, label %8
    i32 219, label %8
    i32 220, label %9
    i32 221, label %9
    i32 222, label %9
    i32 223, label %9
    i32 255, label %10
  ]

8:                                                ; preds = %2, %2, %2, %2
  store i32 7, ptr %3, align 4
  br label %16

9:                                                ; preds = %2, %2, %2, %2
  store i32 8, ptr %3, align 4
  br label %16

10:                                               ; preds = %2
  %11 = load i8, ptr %5, align 1, !tbaa !13
  %12 = zext i8 %11 to i32
  switch i32 %12, label %14 [
    i32 255, label %13
    i32 254, label %13
  ]

13:                                               ; preds = %10, %10
  store i32 0, ptr %3, align 4
  br label %16

14:                                               ; preds = %10
  br label %15

15:                                               ; preds = %2, %14
  store i32 29, ptr %3, align 4
  br label %16

16:                                               ; preds = %15, %13, %9, %8
  %17 = load i32, ptr %3, align 4
  ret i32 %17
}

; Function Attrs: nounwind uwtable
define internal void @big2_updatePosition(ptr noundef %0, ptr noundef %1, ptr noundef %2, ptr noundef %3) #0 {
  %5 = alloca ptr, align 8
  %6 = alloca ptr, align 8
  %7 = alloca ptr, align 8
  %8 = alloca ptr, align 8
  store ptr %0, ptr %5, align 8, !tbaa !45
  store ptr %1, ptr %6, align 8, !tbaa !4
  store ptr %2, ptr %7, align 8, !tbaa !4
  store ptr %3, ptr %8, align 8, !tbaa !57
  br label %9

9:                                                ; preds = %125, %4
  %10 = load ptr, ptr %7, align 8, !tbaa !4
  %11 = load ptr, ptr %6, align 8, !tbaa !4
  %12 = ptrtoint ptr %10 to i64
  %13 = ptrtoint ptr %11 to i64
  %14 = sub i64 %12, %13
  %15 = icmp sge i64 %14, 2
  br i1 %15, label %16, label %126

16:                                               ; preds = %9
  %17 = load ptr, ptr %6, align 8, !tbaa !4
  %18 = getelementptr inbounds i8, ptr %17, i64 0
  %19 = load i8, ptr %18, align 1, !tbaa !13
  %20 = sext i8 %19 to i32
  %21 = icmp eq i32 %20, 0
  br i1 %21, label %22, label %32

22:                                               ; preds = %16
  %23 = load ptr, ptr %5, align 8, !tbaa !45
  %24 = getelementptr inbounds nuw %struct.normal_encoding, ptr %23, i32 0, i32 1
  %25 = load ptr, ptr %6, align 8, !tbaa !4
  %26 = getelementptr inbounds i8, ptr %25, i64 1
  %27 = load i8, ptr %26, align 1, !tbaa !13
  %28 = zext i8 %27 to i64
  %29 = getelementptr inbounds nuw [256 x i8], ptr %24, i64 0, i64 %28
  %30 = load i8, ptr %29, align 1, !tbaa !13
  %31 = zext i8 %30 to i32
  br label %40

32:                                               ; preds = %16
  %33 = load ptr, ptr %6, align 8, !tbaa !4
  %34 = getelementptr inbounds i8, ptr %33, i64 0
  %35 = load i8, ptr %34, align 1, !tbaa !13
  %36 = load ptr, ptr %6, align 8, !tbaa !4
  %37 = getelementptr inbounds i8, ptr %36, i64 1
  %38 = load i8, ptr %37, align 1, !tbaa !13
  %39 = call i32 @unicode_byte_type(i8 noundef signext %35, i8 noundef signext %38)
  br label %40

40:                                               ; preds = %32, %22
  %41 = phi i32 [ %31, %22 ], [ %39, %32 ]
  switch i32 %41, label %118 [
    i32 5, label %42
    i32 6, label %49
    i32 7, label %56
    i32 10, label %63
    i32 9, label %72
  ]

42:                                               ; preds = %40
  %43 = load ptr, ptr %6, align 8, !tbaa !4
  %44 = getelementptr inbounds i8, ptr %43, i64 2
  store ptr %44, ptr %6, align 8, !tbaa !4
  %45 = load ptr, ptr %8, align 8, !tbaa !57
  %46 = getelementptr inbounds nuw %struct.position, ptr %45, i32 0, i32 1
  %47 = load i64, ptr %46, align 8, !tbaa !85
  %48 = add i64 %47, 1
  store i64 %48, ptr %46, align 8, !tbaa !85
  br label %125

49:                                               ; preds = %40
  %50 = load ptr, ptr %6, align 8, !tbaa !4
  %51 = getelementptr inbounds i8, ptr %50, i64 3
  store ptr %51, ptr %6, align 8, !tbaa !4
  %52 = load ptr, ptr %8, align 8, !tbaa !57
  %53 = getelementptr inbounds nuw %struct.position, ptr %52, i32 0, i32 1
  %54 = load i64, ptr %53, align 8, !tbaa !85
  %55 = add i64 %54, 1
  store i64 %55, ptr %53, align 8, !tbaa !85
  br label %125

56:                                               ; preds = %40
  %57 = load ptr, ptr %6, align 8, !tbaa !4
  %58 = getelementptr inbounds i8, ptr %57, i64 4
  store ptr %58, ptr %6, align 8, !tbaa !4
  %59 = load ptr, ptr %8, align 8, !tbaa !57
  %60 = getelementptr inbounds nuw %struct.position, ptr %59, i32 0, i32 1
  %61 = load i64, ptr %60, align 8, !tbaa !85
  %62 = add i64 %61, 1
  store i64 %62, ptr %60, align 8, !tbaa !85
  br label %125

63:                                               ; preds = %40
  %64 = load ptr, ptr %8, align 8, !tbaa !57
  %65 = getelementptr inbounds nuw %struct.position, ptr %64, i32 0, i32 1
  store i64 0, ptr %65, align 8, !tbaa !85
  %66 = load ptr, ptr %8, align 8, !tbaa !57
  %67 = getelementptr inbounds nuw %struct.position, ptr %66, i32 0, i32 0
  %68 = load i64, ptr %67, align 8, !tbaa !87
  %69 = add i64 %68, 1
  store i64 %69, ptr %67, align 8, !tbaa !87
  %70 = load ptr, ptr %6, align 8, !tbaa !4
  %71 = getelementptr inbounds i8, ptr %70, i64 2
  store ptr %71, ptr %6, align 8, !tbaa !4
  br label %125

72:                                               ; preds = %40
  %73 = load ptr, ptr %8, align 8, !tbaa !57
  %74 = getelementptr inbounds nuw %struct.position, ptr %73, i32 0, i32 0
  %75 = load i64, ptr %74, align 8, !tbaa !87
  %76 = add i64 %75, 1
  store i64 %76, ptr %74, align 8, !tbaa !87
  %77 = load ptr, ptr %6, align 8, !tbaa !4
  %78 = getelementptr inbounds i8, ptr %77, i64 2
  store ptr %78, ptr %6, align 8, !tbaa !4
  %79 = load ptr, ptr %7, align 8, !tbaa !4
  %80 = load ptr, ptr %6, align 8, !tbaa !4
  %81 = ptrtoint ptr %79 to i64
  %82 = ptrtoint ptr %80 to i64
  %83 = sub i64 %81, %82
  %84 = icmp sge i64 %83, 2
  br i1 %84, label %85, label %115

85:                                               ; preds = %72
  %86 = load ptr, ptr %6, align 8, !tbaa !4
  %87 = getelementptr inbounds i8, ptr %86, i64 0
  %88 = load i8, ptr %87, align 1, !tbaa !13
  %89 = sext i8 %88 to i32
  %90 = icmp eq i32 %89, 0
  br i1 %90, label %91, label %101

91:                                               ; preds = %85
  %92 = load ptr, ptr %5, align 8, !tbaa !45
  %93 = getelementptr inbounds nuw %struct.normal_encoding, ptr %92, i32 0, i32 1
  %94 = load ptr, ptr %6, align 8, !tbaa !4
  %95 = getelementptr inbounds i8, ptr %94, i64 1
  %96 = load i8, ptr %95, align 1, !tbaa !13
  %97 = zext i8 %96 to i64
  %98 = getelementptr inbounds nuw [256 x i8], ptr %93, i64 0, i64 %97
  %99 = load i8, ptr %98, align 1, !tbaa !13
  %100 = zext i8 %99 to i32
  br label %109

101:                                              ; preds = %85
  %102 = load ptr, ptr %6, align 8, !tbaa !4
  %103 = getelementptr inbounds i8, ptr %102, i64 0
  %104 = load i8, ptr %103, align 1, !tbaa !13
  %105 = load ptr, ptr %6, align 8, !tbaa !4
  %106 = getelementptr inbounds i8, ptr %105, i64 1
  %107 = load i8, ptr %106, align 1, !tbaa !13
  %108 = call i32 @unicode_byte_type(i8 noundef signext %104, i8 noundef signext %107)
  br label %109

109:                                              ; preds = %101, %91
  %110 = phi i32 [ %100, %91 ], [ %108, %101 ]
  %111 = icmp eq i32 %110, 10
  br i1 %111, label %112, label %115

112:                                              ; preds = %109
  %113 = load ptr, ptr %6, align 8, !tbaa !4
  %114 = getelementptr inbounds i8, ptr %113, i64 2
  store ptr %114, ptr %6, align 8, !tbaa !4
  br label %115

115:                                              ; preds = %112, %109, %72
  %116 = load ptr, ptr %8, align 8, !tbaa !57
  %117 = getelementptr inbounds nuw %struct.position, ptr %116, i32 0, i32 1
  store i64 0, ptr %117, align 8, !tbaa !85
  br label %125

118:                                              ; preds = %40
  %119 = load ptr, ptr %6, align 8, !tbaa !4
  %120 = getelementptr inbounds i8, ptr %119, i64 2
  store ptr %120, ptr %6, align 8, !tbaa !4
  %121 = load ptr, ptr %8, align 8, !tbaa !57
  %122 = getelementptr inbounds nuw %struct.position, ptr %121, i32 0, i32 1
  %123 = load i64, ptr %122, align 8, !tbaa !85
  %124 = add i64 %123, 1
  store i64 %124, ptr %122, align 8, !tbaa !85
  br label %125

125:                                              ; preds = %118, %115, %63, %56, %49, %42
  br label %9, !llvm.loop !149

126:                                              ; preds = %9
  ret void
}