; Function Attrs: nofree norecurse nosync nounwind memory(argmem: readwrite) uwtable
define internal void @big2_updatePosition(ptr noundef readonly captures(none) %0, ptr noundef %1, ptr noundef %2, ptr noundef captures(none) %3) #4 {
  %5 = ptrtoint ptr %2 to i64
  %6 = ptrtoint ptr %1 to i64
  %7 = sub i64 %5, %6
  %8 = icmp sgt i64 %7, 1
  br i1 %8, label %.lr.ph, label %._crit_edge

.lr.ph:                                           ; preds = %4
  %9 = getelementptr inbounds nuw i8, ptr %0, i64 128
  %10 = getelementptr inbounds nuw i8, ptr %3, i64 8
  br label %11

11:                                               ; preds = %.lr.ph, %52
  %.033 = phi ptr [ %1, %.lr.ph ], [ %.1, %52 ]
  %12 = load i8, ptr %.033, align 1, !tbaa !9
  switch i8 %12, label %unicode_byte_type.exit.thread [
    i8 0, label %unicode_byte_type.exit
    i8 -40, label %unicode_byte_type.exit.thread36
    i8 -39, label %unicode_byte_type.exit.thread36
    i8 -38, label %unicode_byte_type.exit.thread36
    i8 -37, label %unicode_byte_type.exit.thread36
  ]

unicode_byte_type.exit:                           ; preds = %11
  %13 = getelementptr inbounds nuw i8, ptr %.033, i64 1
  %14 = load i8, ptr %13, align 1, !tbaa !9
  %15 = zext i8 %14 to i64
  %16 = getelementptr inbounds nuw [256 x i8], ptr %9, i64 0, i64 %15
  %17 = load i8, ptr %16, align 1, !tbaa !9
  switch i8 %17, label %unicode_byte_type.exit.thread [
    i8 5, label %18
    i8 6, label %22
    i8 7, label %unicode_byte_type.exit.thread36
    i8 10, label %29
    i8 9, label %33
  ]

18:                                               ; preds = %unicode_byte_type.exit
  %19 = getelementptr inbounds nuw i8, ptr %.033, i64 2
  %20 = load i64, ptr %10, align 8, !tbaa !46
  %21 = add i64 %20, 1
  store i64 %21, ptr %10, align 8, !tbaa !46
  br label %52

22:                                               ; preds = %unicode_byte_type.exit
  %23 = getelementptr inbounds nuw i8, ptr %.033, i64 3
  %24 = load i64, ptr %10, align 8, !tbaa !46
  %25 = add i64 %24, 1
  store i64 %25, ptr %10, align 8, !tbaa !46
  br label %52

unicode_byte_type.exit.thread36:                  ; preds = %11, %11, %11, %11, %unicode_byte_type.exit
  %26 = getelementptr inbounds nuw i8, ptr %.033, i64 4
  %27 = load i64, ptr %10, align 8, !tbaa !46
  %28 = add i64 %27, 1
  store i64 %28, ptr %10, align 8, !tbaa !46
  br label %52

29:                                               ; preds = %unicode_byte_type.exit
  store i64 0, ptr %10, align 8, !tbaa !46
  %30 = load i64, ptr %3, align 8, !tbaa !49
  %31 = add i64 %30, 1
  store i64 %31, ptr %3, align 8, !tbaa !49
  %32 = getelementptr inbounds nuw i8, ptr %.033, i64 2
  br label %52

33:                                               ; preds = %unicode_byte_type.exit
  %34 = load i64, ptr %3, align 8, !tbaa !49
  %35 = add i64 %34, 1
  store i64 %35, ptr %3, align 8, !tbaa !49
  %36 = getelementptr inbounds nuw i8, ptr %.033, i64 2
  %37 = ptrtoint ptr %36 to i64
  %38 = sub i64 %5, %37
  %39 = icmp sgt i64 %38, 1
  br i1 %39, label %40, label %unicode_byte_type.exit31.thread

40:                                               ; preds = %33
  %41 = load i8, ptr %36, align 1, !tbaa !9
  %cond = icmp eq i8 %41, 0
  br i1 %cond, label %unicode_byte_type.exit31, label %unicode_byte_type.exit31.thread

unicode_byte_type.exit31:                         ; preds = %40
  %42 = getelementptr inbounds nuw i8, ptr %.033, i64 3
  %43 = load i8, ptr %42, align 1, !tbaa !9
  %44 = zext i8 %43 to i64
  %45 = getelementptr inbounds nuw [256 x i8], ptr %9, i64 0, i64 %44
  %46 = load i8, ptr %45, align 1, !tbaa !9
  %.fr = freeze i8 %46
  %47 = icmp eq i8 %.fr, 10
  %48 = getelementptr inbounds nuw i8, ptr %.033, i64 4
  %spec.select = select i1 %47, ptr %48, ptr %36
  br label %unicode_byte_type.exit31.thread

unicode_byte_type.exit31.thread:                  ; preds = %unicode_byte_type.exit31, %40, %33
  %.2 = phi ptr [ %36, %33 ], [ %36, %40 ], [ %spec.select, %unicode_byte_type.exit31 ]
  store i64 0, ptr %10, align 8, !tbaa !46
  br label %52

unicode_byte_type.exit.thread:                    ; preds = %11, %unicode_byte_type.exit
  %49 = getelementptr inbounds nuw i8, ptr %.033, i64 2
  %50 = load i64, ptr %10, align 8, !tbaa !46
  %51 = add i64 %50, 1
  store i64 %51, ptr %10, align 8, !tbaa !46
  br label %52

52:                                               ; preds = %unicode_byte_type.exit.thread, %unicode_byte_type.exit31.thread, %29, %unicode_byte_type.exit.thread36, %22, %18
  %.1 = phi ptr [ %49, %unicode_byte_type.exit.thread ], [ %.2, %unicode_byte_type.exit31.thread ], [ %32, %29 ], [ %26, %unicode_byte_type.exit.thread36 ], [ %23, %22 ], [ %19, %18 ]
  %53 = ptrtoint ptr %.1 to i64
  %54 = sub i64 %5, %53
  %55 = icmp sgt i64 %54, 1
  br i1 %55, label %11, label %._crit_edge, !llvm.loop !136

._crit_edge:                                      ; preds = %52, %4
  ret void
}